target datalayout = "e-m:e-p270:32:32-p271:32:32-p272:64:64-i64:64-i128:128-f80:128-n8:16:32:64-S128"
target triple = "x86_64-pc-linux-gnu"

%"class.cv::utils::logging::LogTagConfigParser" = type { %"class.std::__cxx11::basic_string", %"struct.cv::utils::logging::LogTagConfig", %"class.std::vector", %"class.std::vector", %"class.std::vector", %"class.std::vector.3" }
%"class.std::__cxx11::basic_string" = type { %"struct.std::__cxx11::basic_string<char>::_Alloc_hider", i64, %union.anon }
%"struct.std::__cxx11::basic_string<char>::_Alloc_hider" = type { ptr }
%union.anon = type { i64, [8 x i8] }
%"struct.cv::utils::logging::LogTagConfig" = type <{ %"class.std::__cxx11::basic_string", i32, i8, i8, i8, i8 }>
%"class.std::vector" = type { %"struct.std::_Vector_base" }
%"struct.std::_Vector_base" = type { %"struct.std::_Vector_base<cv::utils::logging::LogTagConfig, std::allocator<cv::utils::logging::LogTagConfig>>::_Vector_impl" }
%"struct.std::_Vector_base<cv::utils::logging::LogTagConfig, std::allocator<cv::utils::logging::LogTagConfig>>::_Vector_impl" = type { %"struct.std::_Vector_base<cv::utils::logging::LogTagConfig, std::allocator<cv::utils::logging::LogTagConfig>>::_Vector_impl_data" }
%"struct.std::_Vector_base<cv::utils::logging::LogTagConfig, std::allocator<cv::utils::logging::LogTagConfig>>::_Vector_impl_data" = type { ptr, ptr, ptr }
%"class.std::vector.3" = type { %"struct.std::_Vector_base.4" }
%"struct.std::_Vector_base.4" = type { %"struct.std::_Vector_base<std::__cxx11::basic_string<char>, std::allocator<std::__cxx11::basic_string<char>>>::_Vector_impl" }
%"struct.std::_Vector_base<std::__cxx11::basic_string<char>, std::allocator<std::__cxx11::basic_string<char>>>::_Vector_impl" = type { %"struct.std::_Vector_base<std::__cxx11::basic_string<char>, std::allocator<std::__cxx11::basic_string<char>>>::_Vector_impl_data" }
%"struct.std::_Vector_base<std::__cxx11::basic_string<char>, std::allocator<std::__cxx11::basic_string<char>>>::_Vector_impl_data" = type { ptr, ptr, ptr }

@.str = private unnamed_addr constant [7 x i8] c"global\00", align 1
@.str.3 = private unnamed_addr constant [3 x i8] c"*.\00", align 1

; Function Attrs: mustprogress nounwind uwtable
define linkonce_odr hidden void @_ZN2cv5utils7logging12LogTagConfigD2Ev(ptr noundef nonnull align 8 dereferenceable(39) %0) unnamed_addr #2 comdat align 2 {
  %2 = alloca ptr, align 8
  store ptr %0, ptr %2, align 8
  %3 = load ptr, ptr %2, align 8
  %4 = getelementptr inbounds %"struct.cv::utils::logging::LogTagConfig", ptr %3, i32 0, i32 0
  call void @_ZNSt7__cxx1112basic_stringIcSt11char_traitsIcESaIcEED1Ev(ptr noundef nonnull align 8 dereferenceable(32) %4) #10
  ret void
}

; Function Attrs: mustprogress uwtable
define linkonce_odr hidden void @_ZN2cv5utils7logging12LogTagConfigC2ERKNSt7__cxx1112basic_stringIcSt11char_traitsIcESaIcEEENS1_8LogLevelEbbb(ptr noundef nonnull align 8 dereferenceable(39) %0, ptr noundef nonnull align 8 dereferenceable(32) %1, i32 noundef %2, i1 noundef zeroext %3, i1 noundef zeroext %4, i1 noundef zeroext %5) unnamed_addr #0 comdat align 2 {
  %7 = alloca ptr, align 8
  %8 = alloca ptr, align 8
  %9 = alloca i32, align 4
  %10 = alloca i8, align 1
  %11 = alloca i8, align 1
  %12 = alloca i8, align 1
  store ptr %0, ptr %7, align 8
  store ptr %1, ptr %8, align 8
  store i32 %2, ptr %9, align 4
  %13 = zext i1 %3 to i8
  store i8 %13, ptr %10, align 1
  %14 = zext i1 %4 to i8
  store i8 %14, ptr %11, align 1
  %15 = zext i1 %5 to i8
  store i8 %15, ptr %12, align 1
  %16 = load ptr, ptr %7, align 8
  %17 = getelementptr inbounds %"struct.cv::utils::logging::LogTagConfig", ptr %16, i32 0, i32 0
  %18 = load ptr, ptr %8, align 8
  call void @_ZNSt7__cxx1112basic_stringIcSt11char_traitsIcESaIcEEC1ERKS4_(ptr noundef nonnull align 8 dereferenceable(32) %17, ptr noundef nonnull align 8 dereferenceable(32) %18)
  %19 = getelementptr inbounds %"struct.cv::utils::logging::LogTagConfig", ptr %16, i32 0, i32 1
  %20 = load i32, ptr %9, align 4
  store i32 %20, ptr %19, align 8
  %21 = getelementptr inbounds %"struct.cv::utils::logging::LogTagConfig", ptr %16, i32 0, i32 2
  %22 = load i8, ptr %10, align 1
  %23 = trunc i8 %22 to i1
  %24 = zext i1 %23 to i8
  store i8 %24, ptr %21, align 4
  %25 = getelementptr inbounds %"struct.cv::utils::logging::LogTagConfig", ptr %16, i32 0, i32 3
  %26 = load i8, ptr %11, align 1
  %27 = trunc i8 %26 to i1
  %28 = zext i1 %27 to i8
  store i8 %28, ptr %25, align 1
  %29 = getelementptr inbounds %"struct.cv::utils::logging::LogTagConfig", ptr %16, i32 0, i32 4
  %30 = load i8, ptr %12, align 1
  %31 = trunc i8 %30 to i1
  %32 = zext i1 %31 to i8
  store i8 %32, ptr %29, align 2
  ret void
}

; Function Attrs: mustprogress nounwind uwtable
define linkonce_odr noundef zeroext i1 @_ZSteqIcSt11char_traitsIcESaIcEEbRKNSt7__cxx1112basic_stringIT_T0_T1_EEPKS5_(ptr noundef nonnull align 8 dereferenceable(32) %0, ptr noundef %1) #2 comdat {
  %3 = alloca ptr, align 8
  %4 = alloca ptr, align 8
  store ptr %0, ptr %3, align 8
  store ptr %1, ptr %4, align 8
  %5 = load ptr, ptr %3, align 8
  %6 = load ptr, ptr %4, align 8
  %7 = call noundef i32 @_ZNKSt7__cxx1112basic_stringIcSt11char_traitsIcESaIcEE7compareEPKc(ptr noundef nonnull align 8 dereferenceable(32) %5, ptr noundef %6) #10
  %8 = icmp eq i32 %7, 0
  ret i1 %8
}

; Function Attrs: mustprogress uwtable
define hidden void @_ZN2cv5utils7logging18LogTagConfigParser13parseWildcardERKNSt7__cxx1112basic_stringIcSt11char_traitsIcESaIcEEENS1_8LogLevelE(ptr noundef nonnull align 8 dereferenceable(168) %0, ptr noundef nonnull align 8 dereferenceable(32) %1, i32 noundef %2) #0 align 2 personality ptr @__gxx_personality_v0 {
  %4 = alloca ptr, align 8
  %5 = alloca ptr, align 8
  %6 = alloca i32, align 4
  %7 = alloca i64, align 8
  %8 = alloca i64, align 8
  %9 = alloca i8, align 1
  %10 = alloca i64, align 8
  %11 = alloca i8, align 1
  %12 = alloca i64, align 8
  %13 = alloca %"class.std::__cxx11::basic_string", align 8
  %14 = alloca i8, align 1
  %15 = alloca ptr, align 8
  %16 = alloca i32, align 4
  %17 = alloca i32, align 4
  %18 = alloca %"struct.cv::utils::logging::LogTagConfig", align 8
  store ptr %0, ptr %4, align 8
  store ptr %1, ptr %5, align 8
  store i32 %2, ptr %6, align 4
  %19 = load ptr, ptr %4, align 8
  store i64 -1, ptr %7, align 8
  %20 = load ptr, ptr %5, align 8
  %21 = call noundef i64 @_ZNKSt7__cxx1112basic_stringIcSt11char_traitsIcESaIcEE6lengthEv(ptr noundef nonnull align 8 dereferenceable(32) %20) #10
  store i64 %21, ptr %8, align 8
  %22 = load i64, ptr %8, align 8
  %23 = icmp eq i64 %22, 0
  br i1 %23, label %24, label %28

24:                                               ; preds = %3
  %25 = load i32, ptr %6, align 4
  %26 = getelementptr inbounds %"class.cv::utils::logging::LogTagConfigParser", ptr %19, i32 0, i32 1
  %27 = getelementptr inbounds %"struct.cv::utils::logging::LogTagConfig", ptr %26, i32 0, i32 1
  store i32 %25, ptr %27, align 8
  br label %115

28:                                               ; preds = %3
  %29 = load ptr, ptr %5, align 8
  %30 = call noundef nonnull align 1 dereferenceable(1) ptr @_ZNKSt7__cxx1112basic_stringIcSt11char_traitsIcESaIcEEixEm(ptr noundef nonnull align 8 dereferenceable(32) %29, i64 noundef 0) #10
  %31 = load i8, ptr %30, align 1
  %32 = sext i8 %31 to i32
  %33 = icmp eq i32 %32, 42
  %34 = zext i1 %33 to i8
  store i8 %34, ptr %9, align 1
  %35 = load i8, ptr %9, align 1
  %36 = trunc i8 %35 to i1
  br i1 %36, label %37, label %44

37:                                               ; preds = %28
  %38 = load i64, ptr %8, align 8
  %39 = icmp eq i64 %38, 1
  br i1 %39, label %40, label %44

40:                                               ; preds = %37
  %41 = load i32, ptr %6, align 4
  %42 = getelementptr inbounds %"class.cv::utils::logging::LogTagConfigParser", ptr %19, i32 0, i32 1
  %43 = getelementptr inbounds %"struct.cv::utils::logging::LogTagConfig", ptr %42, i32 0, i32 1
  store i32 %41, ptr %43, align 8
  br label %115

44:                                               ; preds = %37, %28
  %45 = load ptr, ptr %5, align 8
  %46 = call noundef i64 @_ZNKSt7__cxx1112basic_stringIcSt11char_traitsIcESaIcEE17find_first_not_ofEPKcm(ptr noundef nonnull align 8 dereferenceable(32) %45, ptr noundef @.str.3, i64 noundef 0) #10
  store i64 %46, ptr %10, align 8
  %47 = load i8, ptr %9, align 1
  %48 = trunc i8 %47 to i1
  br i1 %48, label %49, label %56

49:                                               ; preds = %44
  %50 = load i64, ptr %10, align 8
  %51 = icmp eq i64 %50, -1
  br i1 %51, label %52, label %56

52:                                               ; preds = %49
  %53 = load i32, ptr %6, align 4
  %54 = getelementptr inbounds %"class.cv::utils::logging::LogTagConfigParser", ptr %19, i32 0, i32 1
  %55 = getelementptr inbounds %"struct.cv::utils::logging::LogTagConfig", ptr %54, i32 0, i32 1
  store i32 %53, ptr %55, align 8
  br label %115

56:                                               ; preds = %49, %44
  %57 = load ptr, ptr %5, align 8
  %58 = load i64, ptr %8, align 8
  %59 = sub i64 %58, 1
  %60 = call noundef nonnull align 1 dereferenceable(1) ptr @_ZNKSt7__cxx1112basic_stringIcSt11char_traitsIcESaIcEEixEm(ptr noundef nonnull align 8 dereferenceable(32) %57, i64 noundef %59) #10
  %61 = load i8, ptr %60, align 1
  %62 = sext i8 %61 to i32
  %63 = icmp eq i32 %62, 42
  %64 = zext i1 %63 to i8
  store i8 %64, ptr %11, align 1
  %65 = load ptr, ptr %5, align 8
  %66 = call noundef i64 @_ZNKSt7__cxx1112basic_stringIcSt11char_traitsIcESaIcEE16find_last_not_ofEPKcm(ptr noundef nonnull align 8 dereferenceable(32) %65, ptr noundef @.str.3, i64 noundef -1) #10
  store i64 %66, ptr %12, align 8
  %67 = load ptr, ptr %5, align 8
  %68 = load i64, ptr %10, align 8
  %69 = load i64, ptr %12, align 8
  %70 = load i64, ptr %10, align 8
  %71 = sub i64 %69, %70
  %72 = add i64 %71, 1
  call void @_ZNKSt7__cxx1112basic_stringIcSt11char_traitsIcESaIcEE6substrEmm(ptr dead_on_unwind writable sret(%"class.std::__cxx11::basic_string") align 8 %13, ptr noundef nonnull align 8 dereferenceable(32) %67, i64 noundef %68, i64 noundef %72)
  %73 = invoke noundef zeroext i1 @_ZSteqIcSt11char_traitsIcESaIcEEbRKNSt7__cxx1112basic_stringIT_T0_T1_EEPKS5_(ptr noundef nonnull align 8 dereferenceable(32) %13, ptr noundef @.str)
          to label %74 unwind label %82

74:                                               ; preds = %56
  %75 = zext i1 %73 to i8
  store i8 %75, ptr %14, align 1
  %76 = load i8, ptr %14, align 1
  %77 = trunc i8 %76 to i1
  br i1 %77, label %78, label %86

78:                                               ; preds = %74
  %79 = load i32, ptr %6, align 4
  %80 = getelementptr inbounds %"class.cv::utils::logging::LogTagConfigParser", ptr %19, i32 0, i32 1
  %81 = getelementptr inbounds %"struct.cv::utils::logging::LogTagConfig", ptr %80, i32 0, i32 1
  store i32 %79, ptr %81, align 8
  store i32 1, ptr %17, align 4
  br label %113

82:                                               ; preds = %86, %56
  %83 = landingpad { ptr, i32 }
          cleanup
  %84 = extractvalue { ptr, i32 } %83, 0
  store ptr %84, ptr %15, align 8
  %85 = extractvalue { ptr, i32 } %83, 1
  store i32 %85, ptr %16, align 4
  br label %116

86:                                               ; preds = %74
  %87 = load i32, ptr %6, align 4
  %88 = load i8, ptr %9, align 1
  %89 = trunc i8 %88 to i1
  %90 = load i8, ptr %11, align 1
  %91 = trunc i8 %90 to i1
  invoke void @_ZN2cv5utils7logging12LogTagConfigC2ERKNSt7__cxx1112basic_stringIcSt11char_traitsIcESaIcEEENS1_8LogLevelEbbb(ptr noundef nonnull align 8 dereferenceable(39) %18, ptr noundef nonnull align 8 dereferenceable(32) %13, i32 noundef %87, i1 noundef zeroext false, i1 noundef zeroext %89, i1 noundef zeroext %91)
          to label %92 unwind label %82

92:                                               ; preds = %86
  %93 = load i8, ptr %9, align 1
  %94 = trunc i8 %93 to i1
  br i1 %94, label %95, label %102

95:                                               ; preds = %92
  %96 = getelementptr inbounds %"class.cv::utils::logging::LogTagConfigParser", ptr %19, i32 0, i32 4
  invoke void @_ZNSt6vectorIN2cv5utils7logging12LogTagConfigESaIS3_EE12emplace_backIJS3_EEEvDpOT_(ptr noundef nonnull align 8 dereferenceable(24) %96, ptr noundef nonnull align 8 dereferenceable(39) %18)
          to label %97 unwind label %98

97:                                               ; preds = %95
  br label %112

98:                                               ; preds = %108, %105, %95
  %99 = landingpad { ptr, i32 }
          cleanup
  %100 = extractvalue { ptr, i32 } %99, 0
  store ptr %100, ptr %15, align 8
  %101 = extractvalue { ptr, i32 } %99, 1
  store i32 %101, ptr %16, align 4
  call void @_ZN2cv5utils7logging12LogTagConfigD2Ev(ptr noundef nonnull align 8 dereferenceable(39) %18) #10
  br label %116

102:                                              ; preds = %92
  %103 = load i8, ptr %11, align 1
  %104 = trunc i8 %103 to i1
  br i1 %104, label %105, label %108

105:                                              ; preds = %102
  %106 = getelementptr inbounds %"class.cv::utils::logging::LogTagConfigParser", ptr %19, i32 0, i32 3
  invoke void @_ZNSt6vectorIN2cv5utils7logging12LogTagConfigESaIS3_EE12emplace_backIJS3_EEEvDpOT_(ptr noundef nonnull align 8 dereferenceable(24) %106, ptr noundef nonnull align 8 dereferenceable(39) %18)
          to label %107 unwind label %98

107:                                              ; preds = %105
  br label %111

108:                                              ; preds = %102
  %109 = getelementptr inbounds %"class.cv::utils::logging::LogTagConfigParser", ptr %19, i32 0, i32 2
  invoke void @_ZNSt6vectorIN2cv5utils7logging12LogTagConfigESaIS3_EE12emplace_backIJS3_EEEvDpOT_(ptr noundef nonnull align 8 dereferenceable(24) %109, ptr noundef nonnull align 8 dereferenceable(39) %18)
          to label %110 unwind label %98

110:                                              ; preds = %108
  br label %111

111:                                              ; preds = %110, %107
  br label %112

112:                                              ; preds = %111, %97
  call void @_ZN2cv5utils7logging12LogTagConfigD2Ev(ptr noundef nonnull align 8 dereferenceable(39) %18) #10
  store i32 0, ptr %17, align 4
  br label %113

113:                                              ; preds = %112, %78
  call void @_ZNSt7__cxx1112basic_stringIcSt11char_traitsIcESaIcEED1Ev(ptr noundef nonnull align 8 dereferenceable(32) %13) #10
  %114 = load i32, ptr %17, align 4
  switch i32 %114, label %122 [
    i32 0, label %115
    i32 1, label %115
  ]

115:                                              ; preds = %113, %113, %52, %40, %24
  ret void

116:                                              ; preds = %98, %82
  call void @_ZNSt7__cxx1112basic_stringIcSt11char_traitsIcESaIcEED1Ev(ptr noundef nonnull align 8 dereferenceable(32) %13) #10
  br label %117

117:                                              ; preds = %116
  %118 = load ptr, ptr %15, align 8
  %119 = load i32, ptr %16, align 4
  %120 = insertvalue { ptr, i32 } poison, ptr %118, 0
  %121 = insertvalue { ptr, i32 } %120, i32 %119, 1
  resume { ptr, i32 } %121

122:                                              ; preds = %113
  unreachable
}