; Function Attrs: mustprogress uwtable
define hidden void @_ZN2cv5utils7logging18LogTagConfigParser13parseWildcardERKNSt7__cxx1112basic_stringIcSt11char_traitsIcESaIcEEENS1_8LogLevelE(ptr noundef nonnull align 8 dereferenceable(168) %0, ptr noundef nonnull align 8 dereferenceable(32) %1, i32 noundef %2) local_unnamed_addr #0 align 2 personality ptr @__gxx_personality_v0 {
  %4 = alloca %"class.std::__cxx11::basic_string", align 8
  %5 = alloca %"struct.cv::utils::logging::LogTagConfig", align 8
  %6 = tail call noundef i64 @_ZNKSt7__cxx1112basic_stringIcSt11char_traitsIcESaIcEE6lengthEv(ptr noundef nonnull align 8 dereferenceable(32) %1) #14
  %7 = icmp eq i64 %6, 0
  br i1 %7, label %8, label %10

8:                                                ; preds = %3
  %9 = getelementptr inbounds i8, ptr %0, i64 64
  store i32 %2, ptr %9, align 8
  br label %58

10:                                               ; preds = %3
  %11 = tail call noundef nonnull align 1 dereferenceable(1) ptr @_ZNKSt7__cxx1112basic_stringIcSt11char_traitsIcESaIcEEixEm(ptr noundef nonnull align 8 dereferenceable(32) %1, i64 noundef 0) #14
  %12 = load i8, ptr %11, align 1
  %13 = icmp eq i8 %12, 42
  %14 = icmp eq i64 %6, 1
  %or.cond = and i1 %14, %13
  br i1 %or.cond, label %15, label %17

15:                                               ; preds = %10
  %16 = getelementptr inbounds i8, ptr %0, i64 64
  store i32 %2, ptr %16, align 8
  br label %58

17:                                               ; preds = %10
  %18 = tail call noundef i64 @_ZNKSt7__cxx1112basic_stringIcSt11char_traitsIcESaIcEE17find_first_not_ofEPKcm(ptr noundef nonnull align 8 dereferenceable(32) %1, ptr noundef nonnull @.str.3, i64 noundef 0) #14
  %19 = icmp eq i64 %18, -1
  %or.cond3 = and i1 %13, %19
  br i1 %or.cond3, label %20, label %22

20:                                               ; preds = %17
  %21 = getelementptr inbounds i8, ptr %0, i64 64
  store i32 %2, ptr %21, align 8
  br label %58

22:                                               ; preds = %17
  %23 = add i64 %6, -1
  %24 = tail call noundef nonnull align 1 dereferenceable(1) ptr @_ZNKSt7__cxx1112basic_stringIcSt11char_traitsIcESaIcEEixEm(ptr noundef nonnull align 8 dereferenceable(32) %1, i64 noundef %23) #14
  %25 = load i8, ptr %24, align 1
  %26 = icmp eq i8 %25, 42
  %27 = tail call noundef i64 @_ZNKSt7__cxx1112basic_stringIcSt11char_traitsIcESaIcEE16find_last_not_ofEPKcm(ptr noundef nonnull align 8 dereferenceable(32) %1, ptr noundef nonnull @.str.3, i64 noundef -1) #14
  %reass.sub = sub i64 %27, %18
  %28 = add i64 %reass.sub, 1
  call void @_ZNKSt7__cxx1112basic_stringIcSt11char_traitsIcESaIcEE6substrEmm(ptr dead_on_unwind nonnull writable sret(%"class.std::__cxx11::basic_string") align 8 %4, ptr noundef nonnull align 8 dereferenceable(32) %1, i64 noundef %18, i64 noundef %28)
  %29 = call noundef i32 @_ZNKSt7__cxx1112basic_stringIcSt11char_traitsIcESaIcEE7compareEPKc(ptr noundef nonnull align 8 dereferenceable(32) %4, ptr noundef nonnull @.str) #14
  %30 = icmp eq i32 %29, 0
  br i1 %30, label %31, label %35

31:                                               ; preds = %22
  %32 = getelementptr inbounds i8, ptr %0, i64 64
  store i32 %2, ptr %32, align 8
  br label %57

33:                                               ; preds = %35
  %34 = landingpad { ptr, i32 }
          cleanup
  br label %59

35:                                               ; preds = %22
  invoke void @_ZNSt7__cxx1112basic_stringIcSt11char_traitsIcESaIcEEC1ERKS4_(ptr noundef nonnull align 8 dereferenceable(32) %5, ptr noundef nonnull align 8 dereferenceable(32) %4)
          to label %36 unwind label %33

36:                                               ; preds = %35
  %37 = zext i1 %26 to i8
  %38 = zext i1 %13 to i8
  %39 = getelementptr inbounds i8, ptr %5, i64 32
  store i32 %2, ptr %39, align 8
  %40 = getelementptr inbounds i8, ptr %5, i64 36
  store i8 0, ptr %40, align 4
  %41 = getelementptr inbounds i8, ptr %5, i64 37
  store i8 %38, ptr %41, align 1
  %42 = getelementptr inbounds i8, ptr %5, i64 38
  store i8 %37, ptr %42, align 2
  br i1 %13, label %43, label %.invoke

43:                                               ; preds = %36
  %44 = getelementptr inbounds i8, ptr %0, i64 128
  %45 = load ptr, ptr %44, align 8
  %46 = getelementptr inbounds i8, ptr %0, i64 136
  %47 = load ptr, ptr %46, align 8
  %.not.i = icmp eq ptr %45, %47
  br i1 %.not.i, label %52, label %48

48:                                               ; preds = %43
  call void @_ZNSt7__cxx1112basic_stringIcSt11char_traitsIcESaIcEEC1EOS4_(ptr noundef nonnull align 8 dereferenceable(32) %45, ptr noundef nonnull align 8 dereferenceable(32) %5) #14
  %49 = getelementptr inbounds i8, ptr %45, i64 32
  call void @llvm.memcpy.p0.p0.i64(ptr noundef nonnull align 8 dereferenceable(7) %49, ptr noundef nonnull align 8 dereferenceable(7) %39, i64 7, i1 false)
  %50 = load ptr, ptr %44, align 8
  %51 = getelementptr inbounds i8, ptr %50, i64 40
  store ptr %51, ptr %44, align 8
  br label %_ZNSt6vectorIN2cv5utils7logging12LogTagConfigESaIS3_EE12emplace_backIJS3_EEEvDpOT_.exit

52:                                               ; preds = %43
  %53 = getelementptr inbounds i8, ptr %0, i64 120
  invoke void @_ZNSt6vectorIN2cv5utils7logging12LogTagConfigESaIS3_EE17_M_realloc_insertIJS3_EEEvN9__gnu_cxx17__normal_iteratorIPS3_S5_EEDpOT_(ptr noundef nonnull align 8 dereferenceable(24) %53, ptr %45, ptr noundef nonnull align 8 dereferenceable(39) %5)
          to label %_ZNSt6vectorIN2cv5utils7logging12LogTagConfigESaIS3_EE12emplace_backIJS3_EEEvDpOT_.exit unwind label %54

54:                                               ; preds = %.invoke, %52
  %55 = landingpad { ptr, i32 }
          cleanup
  call void @_ZNSt7__cxx1112basic_stringIcSt11char_traitsIcESaIcEED1Ev(ptr noundef nonnull align 8 dereferenceable(32) %5) #14
  br label %59

.invoke:                                          ; preds = %36
  %. = select i1 %26, i64 96, i64 72
  %56 = getelementptr inbounds i8, ptr %0, i64 %.
  invoke void @_ZNSt6vectorIN2cv5utils7logging12LogTagConfigESaIS3_EE12emplace_backIJS3_EEEvDpOT_(ptr noundef nonnull align 8 dereferenceable(24) %56, ptr noundef nonnull align 8 dereferenceable(39) %5)
          to label %_ZNSt6vectorIN2cv5utils7logging12LogTagConfigESaIS3_EE12emplace_backIJS3_EEEvDpOT_.exit unwind label %54

_ZNSt6vectorIN2cv5utils7logging12LogTagConfigESaIS3_EE12emplace_backIJS3_EEEvDpOT_.exit: ; preds = %.invoke, %48, %52
  call void @_ZNSt7__cxx1112basic_stringIcSt11char_traitsIcESaIcEED1Ev(ptr noundef nonnull align 8 dereferenceable(32) %5) #14
  br label %57

57:                                               ; preds = %_ZNSt6vectorIN2cv5utils7logging12LogTagConfigESaIS3_EE12emplace_backIJS3_EEEvDpOT_.exit, %31
  call void @_ZNSt7__cxx1112basic_stringIcSt11char_traitsIcESaIcEED1Ev(ptr noundef nonnull align 8 dereferenceable(32) %4) #14
  br label %58

58:                                               ; preds = %57, %20, %15, %8
  ret void

59:                                               ; preds = %54, %33
  %.pn = phi { ptr, i32 } [ %55, %54 ], [ %34, %33 ]
  call void @_ZNSt7__cxx1112basic_stringIcSt11char_traitsIcESaIcEED1Ev(ptr noundef nonnull align 8 dereferenceable(32) %4) #14
  resume { ptr, i32 } %.pn
}